Certificate:
    Data:
        Version: 3 (0x2)
        Serial Number: 197 (0xc5)
        Signature Algorithm: sha1WithRSAEncryption
        Issuer: C=US, ST=California, O=Oblong Industries, Inc., OU=Infrastructure, CN=Oblong Platform Subordinate Certificate Authority
        Validity
            Not Before: Jul 24 02:46:55 2013 GMT
            Not After : Jul 23 02:46:55 2018 GMT
        Subject: C=US, ST=California, O=Oblong Industries, Inc., OU=Infrastructure, CN=platform.oblong.com - ESPN - hans.anderson/emailAddress=hans.c.anderson@espn.com
        Subject Public Key Info:
            Public Key Algorithm: rsaEncryption
            RSA Public Key: (2048 bit)
                Modulus (2048 bit):
                    00:c0:93:36:79:ba:dc:4f:3a:1d:a2:ea:0b:d8:2e:
                    77:ff:d3:b5:20:ff:24:4d:c2:e3:f6:f0:5b:4f:85:
                    e0:61:86:aa:08:8a:9c:d9:9c:02:fa:19:eb:91:84:
                    0e:82:99:4c:d6:78:fc:2e:9f:5c:6c:2e:b9:d0:fe:
                    21:48:94:27:82:bc:76:58:7c:2e:74:81:9e:7a:ad:
                    16:7c:f1:fa:ee:92:fb:d9:d1:e2:f2:74:9e:6b:48:
                    31:06:1b:04:8e:4f:70:6f:4f:80:8f:fb:f8:6b:02:
                    b7:af:5e:67:b1:2b:8e:82:b6:48:76:b9:46:da:55:
                    23:07:ca:6f:ff:4a:33:38:1b:b9:ef:91:3c:3a:a5:
                    19:20:12:45:05:4c:17:6c:cb:7d:0b:74:20:7b:cf:
                    56:19:83:86:7d:c3:84:e9:d2:45:fe:b2:59:20:f6:
                    2b:b2:a4:44:0d:71:28:89:60:7f:f9:ba:4b:20:e9:
                    a1:d2:e9:44:56:2c:3e:d8:df:f2:f6:24:58:20:09:
                    ee:f6:d4:92:ae:4b:a1:c1:47:6b:8f:0e:18:86:b3:
                    fe:bf:14:f1:67:ed:c0:91:d8:67:28:16:d6:b5:fe:
                    e5:26:68:11:d2:b9:5e:87:a2:15:88:aa:53:1b:2c:
                    e7:dc:1c:53:82:f6:fa:9d:fc:13:d1:4a:39:74:0c:
                    13:63
                Exponent: 65537 (0x10001)
        X509v3 extensions:
            X509v3 Basic Constraints: 
                CA:FALSE
            Netscape Comment: 
                OpenSSL Generated Certificate
            X509v3 Subject Key Identifier: 
                E8:A5:B0:42:62:A9:2D:F2:D3:D0:95:4C:A2:9C:31:51:20:26:08:44
            X509v3 Authority Key Identifier: 
                keyid:2A:9A:51:F8:B4:10:22:8B:5B:01:94:04:86:C6:73:98:04:92:00:B4

    Signature Algorithm: sha1WithRSAEncryption
        58:6d:21:fc:d0:ab:7a:61:b1:90:9c:4e:0f:b8:cc:f6:5c:da:
        b4:37:22:61:16:84:6a:c9:bb:26:da:b6:86:ca:55:5a:4a:86:
        af:af:51:0d:e2:38:19:2d:d4:76:c7:34:fa:69:46:61:55:58:
        55:11:c5:8d:8f:00:a5:8f:e6:84:9d:2f:a7:c5:6c:e6:21:0e:
        b1:12:37:27:d4:8e:61:50:99:03:42:b4:17:de:15:18:e8:53:
        15:a7:bd:b2:74:14:6e:0a:bf:1c:27:01:76:11:fa:72:b5:9f:
        8a:38:71:ae:7f:01:9a:a9:41:bf:a9:b0:c0:b6:16:c8:34:11:
        2e:0d:8d:98:00:12:09:63:d1:28:a5:21:5a:92:ae:d6:3d:cc:
        b5:03:e7:81:2f:4e:06:55:28:cc:e3:30:3c:55:c2:c5:71:29:
        2b:47:53:e8:74:ba:d4:cb:19:40:ab:42:2d:7d:56:05:15:98:
        12:bb:8e:40:83:9c:8b:50:92:ba:42:b3:46:63:e5:3c:d6:61:
        fc:f2:ac:f1:8b:85:8b:9c:2c:84:2b:dc:84:64:db:53:24:21:
        e2:58:83:09:47:23:0e:4c:54:a9:a6:b5:d4:26:ab:20:a4:2c:
        89:68:9d:a5:54:90:a9:27:d9:89:47:b8:07:4f:3f:f8:4a:e7:
        b1:34:da:51
-----BEGIN CERTIFICATE-----
MIIETTCCAzWgAwIBAgICAMUwDQYJKoZIhvcNAQEFBQAwgZkxCzAJBgNVBAYTAlVT
MRMwEQYDVQQIEwpDYWxpZm9ybmlhMSAwHgYDVQQKExdPYmxvbmcgSW5kdXN0cmll
cywgSW5jLjEXMBUGA1UECxMOSW5mcmFzdHJ1Y3R1cmUxOjA4BgNVBAMTMU9ibG9u
ZyBQbGF0Zm9ybSBTdWJvcmRpbmF0ZSBDZXJ0aWZpY2F0ZSBBdXRob3JpdHkwHhcN
MTMwNzI0MDI0NjU1WhcNMTgwNzIzMDI0NjU1WjCBuzELMAkGA1UEBhMCVVMxEzAR
BgNVBAgTCkNhbGlmb3JuaWExIDAeBgNVBAoTF09ibG9uZyBJbmR1c3RyaWVzLCBJ
bmMuMRcwFQYDVQQLEw5JbmZyYXN0cnVjdHVyZTEzMDEGA1UEAxMqcGxhdGZvcm0u
b2Jsb25nLmNvbSAtIEVTUE4gLSBoYW5zLmFuZGVyc29uMScwJQYJKoZIhvcNAQkB
FhhoYW5zLmMuYW5kZXJzb25AZXNwbi5jb20wggEiMA0GCSqGSIb3DQEBAQUAA4IB
DwAwggEKAoIBAQDAkzZ5utxPOh2i6gvYLnf/07Ug/yRNwuP28FtPheBhhqoIipzZ
nAL6GeuRhA6CmUzWePwun1xsLrnQ/iFIlCeCvHZYfC50gZ56rRZ88frukvvZ0eLy
dJ5rSDEGGwSOT3BvT4CP+/hrArevXmexK46Ctkh2uUbaVSMHym//SjM4G7nvkTw6
pRkgEkUFTBdsy30LdCB7z1YZg4Z9w4Tp0kX+slkg9iuypEQNcSiJYH/5uksg6aHS
6URWLD7Y3/L2JFggCe721JKuS6HBR2uPDhiGs/6/FPFn7cCR2GcoFta1/uUmaBHS
uV6HohWIqlMbLOfcHFOC9vqd/BPRSjl0DBNjAgMBAAGjezB5MAkGA1UdEwQCMAAw
LAYJYIZIAYb4QgENBB8WHU9wZW5TU0wgR2VuZXJhdGVkIENlcnRpZmljYXRlMB0G
A1UdDgQWBBTopbBCYqkt8tPQlUyinDFRICYIRDAfBgNVHSMEGDAWgBQqmlH4tBAi
i1sBlASGxnOYBJIAtDANBgkqhkiG9w0BAQUFAAOCAQEAWG0h/NCremGxkJxOD7jM
9lzatDciYRaEasm7Jtq2hspVWkqGr69RDeI4GS3Udsc0+mlGYVVYVRHFjY8ApY/m
hJ0vp8Vs5iEOsRI3J9SOYVCZA0K0F94VGOhTFae9snQUbgq/HCcBdhH6crWfijhx
rn8BmqlBv6mwwLYWyDQRLg2NmAASCWPRKKUhWpKu1j3MtQPngS9OBlUozOMwPFXC
xXEpK0dT6HS61MsZQKtCLX1WBRWYEruOQIOci1CSukKzRmPlPNZh/PKs8YuFi5ws
hCvchGTbUyQh4liDCUcjDkxUqaa11CarIKQsiWidpVSQqSfZiUe4B08/+ErnsTTa
UQ==
-----END CERTIFICATE-----
